; Function Attrs: mustprogress uwtable
define hidden noundef range(i32 0, 2) i32 @_ZN3smt12theory_array31mk_interface_eqs_at_final_checkEv(ptr noundef nonnull align 8 dereferenceable(444) %0) local_unnamed_addr #4 align 2 {
  %2 = tail call noundef i32 @_ZN3smt17theory_array_base16mk_interface_eqsEv(ptr noundef nonnull align 8 dereferenceable(249) %0)
  %3 = getelementptr inbounds nuw i8, ptr %0, i64 288
  %4 = load i32, ptr %3, align 8, !tbaa !632
  %5 = add i32 %4, %2
  store i32 %5, ptr %3, align 8, !tbaa !632
  %.not = icmp ne i32 %2, 0
  %. = zext i1 %.not to i32
  ret i32 %.
}